target datalayout = "e-m:e-p270:32:32-p271:32:32-p272:64:64-i64:64-f80:128-n8:16:32:64-S128"
target triple = "x86_64-pc-linux-gnu"

@.str = private unnamed_addr constant [3 x i8] c"%d\00", align 1
@.str.1 = private unnamed_addr constant [10 x i8] c"%d %d %d \00", align 1
@.str.2 = private unnamed_addr constant [29 x i8] c"(%d,%d,%d)-(%d,%d,%d)=%.2lf\0A\00", align 1

; Function Attrs: noinline nounwind uwtable
define dso_local i32 @main() #0 {
  %1 = alloca i32, align 4
  %2 = alloca i32, align 4
  %3 = alloca [10 x [3 x i32]], align 16
  %4 = alloca [100 x i32], align 16
  %5 = alloca [100 x i32], align 16
  %6 = alloca i32, align 4
  %7 = alloca i32, align 4
  %8 = alloca i32, align 4
  %9 = alloca i32, align 4
  %10 = alloca double, align 8
  %11 = alloca [100 x double], align 16
  store i32 0, i32* %1, align 4
  %12 = call i32 (i8*, ...) @__isoc99_scanf(i8* getelementptr inbounds ([3 x i8], [3 x i8]* @.str, i64 0, i64 0), i32* %2)
  store i32 0, i32* %6, align 4
  br label %13

13:                                               ; preds = %31, %0
  %14 = load i32, i32* %6, align 4
  %15 = load i32, i32* %2, align 4
  %16 = icmp slt i32 %14, %15
  br i1 %16, label %17, label %34

17:                                               ; preds = %13
  %18 = load i32, i32* %6, align 4
  %19 = sext i32 %18 to i64
  %20 = getelementptr inbounds [10 x [3 x i32]], [10 x [3 x i32]]* %3, i64 0, i64 %19
  %21 = getelementptr inbounds [3 x i32], [3 x i32]* %20, i64 0, i64 0
  %22 = load i32, i32* %6, align 4
  %23 = sext i32 %22 to i64
  %24 = getelementptr inbounds [10 x [3 x i32]], [10 x [3 x i32]]* %3, i64 0, i64 %23
  %25 = getelementptr inbounds [3 x i32], [3 x i32]* %24, i64 0, i64 1
  %26 = load i32, i32* %6, align 4
  %27 = sext i32 %26 to i64
  %28 = getelementptr inbounds [10 x [3 x i32]], [10 x [3 x i32]]* %3, i64 0, i64 %27
  %29 = getelementptr inbounds [3 x i32], [3 x i32]* %28, i64 0, i64 2
  %30 = call i32 (i8*, ...) @__isoc99_scanf(i8* getelementptr inbounds ([10 x i8], [10 x i8]* @.str.1, i64 0, i64 0), i32* %21, i32* %25, i32* %29)
  br label %31

31:                                               ; preds = %17
  %32 = load i32, i32* %6, align 4
  %33 = add nsw i32 %32, 1
  store i32 %33, i32* %6, align 4
  br label %13

34:                                               ; preds = %13
  store i32 0, i32* %8, align 4
  br label %35

35:                                               ; preds = %151, %34
  %36 = load i32, i32* %8, align 4
  %37 = load i32, i32* %2, align 4
  %38 = load i32, i32* %2, align 4
  %39 = sub nsw i32 %38, 1
  %40 = mul nsw i32 %37, %39
  %41 = sdiv i32 %40, 2
  %42 = icmp slt i32 %36, %41
  br i1 %42, label %43, label %152

43:                                               ; preds = %35
  store i32 0, i32* %6, align 4
  br label %44

44:                                               ; preds = %148, %43
  %45 = load i32, i32* %6, align 4
  %46 = load i32, i32* %2, align 4
  %47 = sub nsw i32 %46, 1
  %48 = icmp slt i32 %45, %47
  br i1 %48, label %49, label %151

49:                                               ; preds = %44
  %50 = load i32, i32* %6, align 4
  %51 = add nsw i32 %50, 1
  store i32 %51, i32* %7, align 4
  br label %52

52:                                               ; preds = %144, %49
  %53 = load i32, i32* %7, align 4
  %54 = load i32, i32* %2, align 4
  %55 = icmp slt i32 %53, %54
  br i1 %55, label %56, label %147

56:                                               ; preds = %52
  %57 = load i32, i32* %6, align 4
  %58 = sext i32 %57 to i64
  %59 = getelementptr inbounds [10 x [3 x i32]], [10 x [3 x i32]]* %3, i64 0, i64 %58
  %60 = getelementptr inbounds [3 x i32], [3 x i32]* %59, i64 0, i64 0
  %61 = load i32, i32* %60, align 4
  %62 = load i32, i32* %7, align 4
  %63 = sext i32 %62 to i64
  %64 = getelementptr inbounds [10 x [3 x i32]], [10 x [3 x i32]]* %3, i64 0, i64 %63
  %65 = getelementptr inbounds [3 x i32], [3 x i32]* %64, i64 0, i64 0
  %66 = load i32, i32* %65, align 4
  %67 = sub nsw i32 %61, %66
  %68 = load i32, i32* %6, align 4
  %69 = sext i32 %68 to i64
  %70 = getelementptr inbounds [10 x [3 x i32]], [10 x [3 x i32]]* %3, i64 0, i64 %69
  %71 = getelementptr inbounds [3 x i32], [3 x i32]* %70, i64 0, i64 0
  %72 = load i32, i32* %71, align 4
  %73 = load i32, i32* %7, align 4
  %74 = sext i32 %73 to i64
  %75 = getelementptr inbounds [10 x [3 x i32]], [10 x [3 x i32]]* %3, i64 0, i64 %74
  %76 = getelementptr inbounds [3 x i32], [3 x i32]* %75, i64 0, i64 0
  %77 = load i32, i32* %76, align 4
  %78 = sub nsw i32 %72, %77
  %79 = mul nsw i32 %67, %78
  %80 = load i32, i32* %6, align 4
  %81 = sext i32 %80 to i64
  %82 = getelementptr inbounds [10 x [3 x i32]], [10 x [3 x i32]]* %3, i64 0, i64 %81
  %83 = getelementptr inbounds [3 x i32], [3 x i32]* %82, i64 0, i64 1
  %84 = load i32, i32* %83, align 4
  %85 = load i32, i32* %7, align 4
  %86 = sext i32 %85 to i64
  %87 = getelementptr inbounds [10 x [3 x i32]], [10 x [3 x i32]]* %3, i64 0, i64 %86
  %88 = getelementptr inbounds [3 x i32], [3 x i32]* %87, i64 0, i64 1
  %89 = load i32, i32* %88, align 4
  %90 = sub nsw i32 %84, %89
  %91 = load i32, i32* %6, align 4
  %92 = sext i32 %91 to i64
  %93 = getelementptr inbounds [10 x [3 x i32]], [10 x [3 x i32]]* %3, i64 0, i64 %92
  %94 = getelementptr inbounds [3 x i32], [3 x i32]* %93, i64 0, i64 1
  %95 = load i32, i32* %94, align 4
  %96 = load i32, i32* %7, align 4
  %97 = sext i32 %96 to i64
  %98 = getelementptr inbounds [10 x [3 x i32]], [10 x [3 x i32]]* %3, i64 0, i64 %97
  %99 = getelementptr inbounds [3 x i32], [3 x i32]* %98, i64 0, i64 1
  %100 = load i32, i32* %99, align 4
  %101 = sub nsw i32 %95, %100
  %102 = mul nsw i32 %90, %101
  %103 = add nsw i32 %79, %102
  %104 = load i32, i32* %6, align 4
  %105 = sext i32 %104 to i64
  %106 = getelementptr inbounds [10 x [3 x i32]], [10 x [3 x i32]]* %3, i64 0, i64 %105
  %107 = getelementptr inbounds [3 x i32], [3 x i32]* %106, i64 0, i64 2
  %108 = load i32, i32* %107, align 4
  %109 = load i32, i32* %7, align 4
  %110 = sext i32 %109 to i64
  %111 = getelementptr inbounds [10 x [3 x i32]], [10 x [3 x i32]]* %3, i64 0, i64 %110
  %112 = getelementptr inbounds [3 x i32], [3 x i32]* %111, i64 0, i64 2
  %113 = load i32, i32* %112, align 4
  %114 = sub nsw i32 %108, %113
  %115 = load i32, i32* %6, align 4
  %116 = sext i32 %115 to i64
  %117 = getelementptr inbounds [10 x [3 x i32]], [10 x [3 x i32]]* %3, i64 0, i64 %116
  %118 = getelementptr inbounds [3 x i32], [3 x i32]* %117, i64 0, i64 2
  %119 = load i32, i32* %118, align 4
  %120 = load i32, i32* %7, align 4
  %121 = sext i32 %120 to i64
  %122 = getelementptr inbounds [10 x [3 x i32]], [10 x [3 x i32]]* %3, i64 0, i64 %121
  %123 = getelementptr inbounds [3 x i32], [3 x i32]* %122, i64 0, i64 2
  %124 = load i32, i32* %123, align 4
  %125 = sub nsw i32 %119, %124
  %126 = mul nsw i32 %114, %125
  %127 = add nsw i32 %103, %126
  %128 = sitofp i32 %127 to double
  %129 = fmul double 1.000000e+00, %128
  %130 = call double @sqrt(double %129) #3
  %131 = load i32, i32* %8, align 4
  %132 = sext i32 %131 to i64
  %133 = getelementptr inbounds [100 x double], [100 x double]* %11, i64 0, i64 %132
  store double %130, double* %133, align 8
  %134 = load i32, i32* %6, align 4
  %135 = load i32, i32* %8, align 4
  %136 = sext i32 %135 to i64
  %137 = getelementptr inbounds [100 x i32], [100 x i32]* %4, i64 0, i64 %136
  store i32 %134, i32* %137, align 4
  %138 = load i32, i32* %7, align 4
  %139 = load i32, i32* %8, align 4
  %140 = sext i32 %139 to i64
  %141 = getelementptr inbounds [100 x i32], [100 x i32]* %5, i64 0, i64 %140
  store i32 %138, i32* %141, align 4
  %142 = load i32, i32* %8, align 4
  %143 = add nsw i32 %142, 1
  store i32 %143, i32* %8, align 4
  br label %144

144:                                              ; preds = %56
  %145 = load i32, i32* %7, align 4
  %146 = add nsw i32 %145, 1
  store i32 %146, i32* %7, align 4
  br label %52

147:                                              ; preds = %52
  br label %148

148:                                              ; preds = %147
  %149 = load i32, i32* %6, align 4
  %150 = add nsw i32 %149, 1
  store i32 %150, i32* %6, align 4
  br label %44

151:                                              ; preds = %44
  br label %35

152:                                              ; preds = %35
  store i32 0, i32* %6, align 4
  br label %153

153:                                              ; preds = %241, %152
  %154 = load i32, i32* %6, align 4
  %155 = load i32, i32* %2, align 4
  %156 = load i32, i32* %2, align 4
  %157 = sub nsw i32 %156, 1
  %158 = mul nsw i32 %155, %157
  %159 = sdiv i32 %158, 2
  %160 = sub nsw i32 %159, 1
  %161 = icmp slt i32 %154, %160
  br i1 %161, label %162, label %244

162:                                              ; preds = %153
  store i32 0, i32* %8, align 4
  br label %163

163:                                              ; preds = %237, %162
  %164 = load i32, i32* %8, align 4
  %165 = load i32, i32* %2, align 4
  %166 = load i32, i32* %2, align 4
  %167 = sub nsw i32 %166, 1
  %168 = mul nsw i32 %165, %167
  %169 = sdiv i32 %168, 2
  %170 = load i32, i32* %6, align 4
  %171 = sub nsw i32 %169, %170
  %172 = icmp slt i32 %164, %171
  br i1 %172, label %173, label %240

173:                                              ; preds = %163
  %174 = load i32, i32* %8, align 4
  %175 = sext i32 %174 to i64
  %176 = getelementptr inbounds [100 x double], [100 x double]* %11, i64 0, i64 %175
  %177 = load double, double* %176, align 8
  %178 = load i32, i32* %8, align 4
  %179 = add nsw i32 %178, 1
  %180 = sext i32 %179 to i64
  %181 = getelementptr inbounds [100 x double], [100 x double]* %11, i64 0, i64 %180
  %182 = load double, double* %181, align 8
  %183 = fcmp olt double %177, %182
  br i1 %183, label %184, label %236

184:                                              ; preds = %173
  %185 = load i32, i32* %8, align 4
  %186 = sext i32 %185 to i64
  %187 = getelementptr inbounds [100 x double], [100 x double]* %11, i64 0, i64 %186
  %188 = load double, double* %187, align 8
  store double %188, double* %10, align 8
  %189 = load i32, i32* %8, align 4
  %190 = add nsw i32 %189, 1
  %191 = sext i32 %190 to i64
  %192 = getelementptr inbounds [100 x double], [100 x double]* %11, i64 0, i64 %191
  %193 = load double, double* %192, align 8
  %194 = load i32, i32* %8, align 4
  %195 = sext i32 %194 to i64
  %196 = getelementptr inbounds [100 x double], [100 x double]* %11, i64 0, i64 %195
  store double %193, double* %196, align 8
  %197 = load double, double* %10, align 8
  %198 = load i32, i32* %8, align 4
  %199 = add nsw i32 %198, 1
  %200 = sext i32 %199 to i64
  %201 = getelementptr inbounds [100 x double], [100 x double]* %11, i64 0, i64 %200
  store double %197, double* %201, align 8
  %202 = load i32, i32* %8, align 4
  %203 = sext i32 %202 to i64
  %204 = getelementptr inbounds [100 x i32], [100 x i32]* %4, i64 0, i64 %203
  %205 = load i32, i32* %204, align 4
  store i32 %205, i32* %9, align 4
  %206 = load i32, i32* %8, align 4
  %207 = add nsw i32 %206, 1
  %208 = sext i32 %207 to i64
  %209 = getelementptr inbounds [100 x i32], [100 x i32]* %4, i64 0, i64 %208
  %210 = load i32, i32* %209, align 4
  %211 = load i32, i32* %8, align 4
  %212 = sext i32 %211 to i64
  %213 = getelementptr inbounds [100 x i32], [100 x i32]* %4, i64 0, i64 %212
  store i32 %210, i32* %213, align 4
  %214 = load i32, i32* %9, align 4
  %215 = load i32, i32* %8, align 4
  %216 = add nsw i32 %215, 1
  %217 = sext i32 %216 to i64
  %218 = getelementptr inbounds [100 x i32], [100 x i32]* %4, i64 0, i64 %217
  store i32 %214, i32* %218, align 4
  %219 = load i32, i32* %8, align 4
  %220 = sext i32 %219 to i64
  %221 = getelementptr inbounds [100 x i32], [100 x i32]* %5, i64 0, i64 %220
  %222 = load i32, i32* %221, align 4
  store i32 %222, i32* %9, align 4
  %223 = load i32, i32* %8, align 4
  %224 = add nsw i32 %223, 1
  %225 = sext i32 %224 to i64
  %226 = getelementptr inbounds [100 x i32], [100 x i32]* %5, i64 0, i64 %225
  %227 = load i32, i32* %226, align 4
  %228 = load i32, i32* %8, align 4
  %229 = sext i32 %228 to i64
  %230 = getelementptr inbounds [100 x i32], [100 x i32]* %5, i64 0, i64 %229
  store i32 %227, i32* %230, align 4
  %231 = load i32, i32* %9, align 4
  %232 = load i32, i32* %8, align 4
  %233 = add nsw i32 %232, 1
  %234 = sext i32 %233 to i64
  %235 = getelementptr inbounds [100 x i32], [100 x i32]* %5, i64 0, i64 %234
  store i32 %231, i32* %235, align 4
  br label %236

236:                                              ; preds = %184, %173
  br label %237

237:                                              ; preds = %236
  %238 = load i32, i32* %8, align 4
  %239 = add nsw i32 %238, 1
  store i32 %239, i32* %8, align 4
  br label %163

240:                                              ; preds = %163
  br label %241

241:                                              ; preds = %240
  %242 = load i32, i32* %6, align 4
  %243 = add nsw i32 %242, 1
  store i32 %243, i32* %6, align 4
  br label %153

244:                                              ; preds = %153
  store i32 0, i32* %8, align 4
  br label %245

245:                                              ; preds = %297, %244
  %246 = load i32, i32* %8, align 4
  %247 = load i32, i32* %2, align 4
  %248 = load i32, i32* %2, align 4
  %249 = sub nsw i32 %248, 1
  %250 = mul nsw i32 %247, %249
  %251 = sdiv i32 %250, 2
  %252 = icmp slt i32 %246, %251
  br i1 %252, label %253, label %300

253:                                              ; preds = %245
  %254 = load i32, i32* %8, align 4
  %255 = sext i32 %254 to i64
  %256 = getelementptr inbounds [100 x i32], [100 x i32]* %4, i64 0, i64 %255
  %257 = load i32, i32* %256, align 4
  store i32 %257, i32* %6, align 4
  %258 = load i32, i32* %8, align 4
  %259 = sext i32 %258 to i64
  %260 = getelementptr inbounds [100 x i32], [100 x i32]* %5, i64 0, i64 %259
  %261 = load i32, i32* %260, align 4
  store i32 %261, i32* %7, align 4
  %262 = load i32, i32* %6, align 4
  %263 = sext i32 %262 to i64
  %264 = getelementptr inbounds [10 x [3 x i32]], [10 x [3 x i32]]* %3, i64 0, i64 %263
  %265 = getelementptr inbounds [3 x i32], [3 x i32]* %264, i64 0, i64 0
  %266 = load i32, i32* %265, align 4
  %267 = load i32, i32* %6, align 4
  %268 = sext i32 %267 to i64
  %269 = getelementptr inbounds [10 x [3 x i32]], [10 x [3 x i32]]* %3, i64 0, i64 %268
  %270 = getelementptr inbounds [3 x i32], [3 x i32]* %269, i64 0, i64 1
  %271 = load i32, i32* %270, align 4
  %272 = load i32, i32* %6, align 4
  %273 = sext i32 %272 to i64
  %274 = getelementptr inbounds [10 x [3 x i32]], [10 x [3 x i32]]* %3, i64 0, i64 %273
  %275 = getelementptr inbounds [3 x i32], [3 x i32]* %274, i64 0, i64 2
  %276 = load i32, i32* %275, align 4
  %277 = load i32, i32* %7, align 4
  %278 = sext i32 %277 to i64
  %279 = getelementptr inbounds [10 x [3 x i32]], [10 x [3 x i32]]* %3, i64 0, i64 %278
  %280 = getelementptr inbounds [3 x i32], [3 x i32]* %279, i64 0, i64 0
  %281 = load i32, i32* %280, align 4
  %282 = load i32, i32* %7, align 4
  %283 = sext i32 %282 to i64
  %284 = getelementptr inbounds [10 x [3 x i32]], [10 x [3 x i32]]* %3, i64 0, i64 %283
  %285 = getelementptr inbounds [3 x i32], [3 x i32]* %284, i64 0, i64 1
  %286 = load i32, i32* %285, align 4
  %287 = load i32, i32* %7, align 4
  %288 = sext i32 %287 to i64
  %289 = getelementptr inbounds [10 x [3 x i32]], [10 x [3 x i32]]* %3, i64 0, i64 %288
  %290 = getelementptr inbounds [3 x i32], [3 x i32]* %289, i64 0, i64 2
  %291 = load i32, i32* %290, align 4
  %292 = load i32, i32* %8, align 4
  %293 = sext i32 %292 to i64
  %294 = getelementptr inbounds [100 x double], [100 x double]* %11, i64 0, i64 %293
  %295 = load double, double* %294, align 8
  %296 = call i32 (i8*, ...) @printf(i8* getelementptr inbounds ([29 x i8], [29 x i8]* @.str.2, i64 0, i64 0), i32 %266, i32 %271, i32 %276, i32 %281, i32 %286, i32 %291, double %295)
  br label %297

297:                                              ; preds = %253
  %298 = load i32, i32* %8, align 4
  %299 = add nsw i32 %298, 1
  store i32 %299, i32* %8, align 4
  br label %245

300:                                              ; preds = %245
  ret i32 0
}